target datalayout = "e-m:e-p270:32:32-p271:32:32-p272:64:64-i64:64-i128:128-f80:128-n8:16:32:64-S128"
target triple = "x86_64-pc-linux-gnu"

%struct.MovTextContext = type { ptr, ptr, %struct.HighlightBox, %struct.HilightcolorBox, ptr, %struct.TextWrapBox, %struct.MovTextDefault, i8, i16, i16, i32, i32, i32 }
%struct.HighlightBox = type { i16, i16 }
%struct.HilightcolorBox = type { [4 x i8] }
%struct.TextWrapBox = type { i8 }
%struct.MovTextDefault = type { %struct.StyleBox, ptr, i32, i8, i32 }
%struct.StyleBox = type { i16, i16, i8, i8, i8, i8, i32, i8, i8, i16 }

; Function Attrs: alwaysinline nounwind uwtable
define internal i32 @bytestream_get_buffer(ptr noundef %0, ptr noundef %1, i32 noundef %2) #4 {
  %4 = alloca ptr, align 8
  %5 = alloca ptr, align 8
  %6 = alloca i32, align 4
  store ptr %0, ptr %4, align 8, !tbaa !85
  store ptr %1, ptr %5, align 8, !tbaa !56
  store i32 %2, ptr %6, align 4, !tbaa !30
  %7 = load ptr, ptr %5, align 8, !tbaa !56
  %8 = load ptr, ptr %4, align 8, !tbaa !85
  %9 = load ptr, ptr %8, align 8, !tbaa !56
  %10 = load i32, ptr %6, align 4, !tbaa !30
  %11 = zext i32 %10 to i64
  call void @llvm.memcpy.p0.p0.i64(ptr align 1 %7, ptr align 1 %9, i64 %11, i1 false)
  %12 = load i32, ptr %6, align 4, !tbaa !30
  %13 = load ptr, ptr %4, align 8, !tbaa !85
  %14 = load ptr, ptr %13, align 8, !tbaa !56
  %15 = zext i32 %12 to i64
  %16 = getelementptr inbounds nuw i8, ptr %14, i64 %15
  store ptr %16, ptr %13, align 8, !tbaa !56
  %17 = load i32, ptr %6, align 4, !tbaa !30
  ret i32 %17
}

; Function Attrs: nounwind uwtable
define internal i32 @decode_hclr(ptr noundef %0, ptr noundef %1, i64 noundef %2) #1 {
  %4 = alloca ptr, align 8
  %5 = alloca ptr, align 8
  %6 = alloca i64, align 8
  store ptr %0, ptr %4, align 8, !tbaa !56
  store ptr %1, ptr %5, align 8, !tbaa !29
  store i64 %2, ptr %6, align 8, !tbaa !61
  %7 = load ptr, ptr %5, align 8, !tbaa !29
  %8 = getelementptr inbounds nuw %struct.MovTextContext, ptr %7, i32 0, i32 7
  %9 = load i8, ptr %8, align 8, !tbaa !60
  %10 = zext i8 %9 to i32
  %11 = or i32 %10, 4
  %12 = trunc i32 %11 to i8
  store i8 %12, ptr %8, align 8, !tbaa !60
  %13 = load ptr, ptr %5, align 8, !tbaa !29
  %14 = getelementptr inbounds nuw %struct.MovTextContext, ptr %13, i32 0, i32 3
  %15 = getelementptr inbounds nuw %struct.HilightcolorBox, ptr %14, i32 0, i32 0
  %16 = getelementptr inbounds [4 x i8], ptr %15, i64 0, i64 0
  %17 = call i32 @bytestream_get_buffer(ptr noundef %4, ptr noundef %16, i32 noundef 4)
  ret i32 0
}