; Function Attrs: mustprogress nofree norecurse nosync nounwind willreturn memory(argmem: readwrite) uwtable
define internal noundef i32 @decode_hclr(ptr noundef readonly captures(none) %0, ptr noundef captures(none) initializes((20, 24)) %1, i64 %2) #6 {
  %4 = getelementptr inbounds nuw i8, ptr %1, i64 80
  %5 = load i8, ptr %4, align 8, !tbaa !62
  %6 = or i8 %5, 4
  store i8 %6, ptr %4, align 8, !tbaa !62
  %7 = getelementptr inbounds nuw i8, ptr %1, i64 20
  %8 = load i32, ptr %0, align 1
  store i32 %8, ptr %7, align 1
  ret i32 0
}